; Function Attrs: mustprogress uwtable
define void @_ZNK9pymeshlab17FunctionParameter18defaultValueStringEv(ptr dead_on_unwind noalias writable sret(%class.QString) align 8 %0, ptr nocapture noundef nonnull readonly align 8 dereferenceable(16) %1) local_unnamed_addr #6 align 2 personality ptr @__gxx_personality_v0 {
  %3 = alloca %"class.std::__cxx11::basic_stringstream", align 8
  %4 = alloca %"class.std::__cxx11::basic_string", align 8
  call void @_ZNSt7__cxx1118basic_stringstreamIcSt11char_traitsIcESaIcEEC1Ev(ptr noundef nonnull align 8 dereferenceable(128) %3)
  %5 = getelementptr inbounds i8, ptr %3, i64 16
  invoke void @_ZNK9pymeshlab17FunctionParameter17printDefaultValueERSo(ptr noundef nonnull align 8 dereferenceable(16) %1, ptr noundef nonnull align 8 dereferenceable(8) %5)
          to label %6 unwind label %17

6:                                                ; preds = %2
  invoke void @_ZNKSt7__cxx1118basic_stringstreamIcSt11char_traitsIcESaIcEE3strEv(ptr dead_on_unwind nonnull writable sret(%"class.std::__cxx11::basic_string") align 8 %4, ptr noundef nonnull align 8 dereferenceable(128) %3)
          to label %7 unwind label %17

7:                                                ; preds = %6
  %8 = call noundef ptr @_ZNKSt7__cxx1112basic_stringIcSt11char_traitsIcESaIcEE4dataEv(ptr noundef nonnull align 8 dereferenceable(32) %4) #15, !noalias !13
  %9 = call noundef i64 @_ZNKSt7__cxx1112basic_stringIcSt11char_traitsIcESaIcEE4sizeEv(ptr noundef nonnull align 8 dereferenceable(32) %4) #15, !noalias !13
  %10 = trunc i64 %9 to i32
  %11 = icmp ne ptr %8, null
  %12 = icmp eq i32 %10, -1
  %or.cond.i.i = and i1 %11, %12
  br i1 %or.cond.i.i, label %13, label %_ZN7QString8fromUtf8EPKci.exit.i

13:                                               ; preds = %7
  %14 = call i64 @strlen(ptr noundef nonnull dereferenceable(1) %8) #19, !noalias !16
  %15 = trunc i64 %14 to i32
  br label %_ZN7QString8fromUtf8EPKci.exit.i

_ZN7QString8fromUtf8EPKci.exit.i:                 ; preds = %13, %7
  %16 = phi i32 [ %15, %13 ], [ %10, %7 ]
  invoke void @_ZN7QString15fromUtf8_helperEPKci(ptr dead_on_unwind writable sret(%class.QString) align 8 %0, ptr noundef %8, i32 noundef %16)
          to label %_ZN7QString13fromStdStringERKNSt7__cxx1112basic_stringIcSt11char_traitsIcESaIcEEE.exit unwind label %19

_ZN7QString13fromStdStringERKNSt7__cxx1112basic_stringIcSt11char_traitsIcESaIcEEE.exit: ; preds = %_ZN7QString8fromUtf8EPKci.exit.i
  call void @_ZNSt7__cxx1112basic_stringIcSt11char_traitsIcESaIcEED1Ev(ptr noundef nonnull align 8 dereferenceable(32) %4) #15
  call void @_ZNSt7__cxx1118basic_stringstreamIcSt11char_traitsIcESaIcEED1Ev(ptr noundef nonnull align 8 dereferenceable(128) %3) #15
  ret void

17:                                               ; preds = %6, %2
  %18 = landingpad { ptr, i32 }
          cleanup
  br label %21

19:                                               ; preds = %_ZN7QString8fromUtf8EPKci.exit.i
  %20 = landingpad { ptr, i32 }
          cleanup
  call void @_ZNSt7__cxx1112basic_stringIcSt11char_traitsIcESaIcEED1Ev(ptr noundef nonnull align 8 dereferenceable(32) %4) #15
  br label %21

21:                                               ; preds = %19, %17
  %.pn = phi { ptr, i32 } [ %20, %19 ], [ %18, %17 ]
  call void @_ZNSt7__cxx1118basic_stringstreamIcSt11char_traitsIcESaIcEED1Ev(ptr noundef nonnull align 8 dereferenceable(128) %3) #15
  resume { ptr, i32 } %.pn
}